; Function Attrs: mustprogress nounwind uwtable
define void @_ZN5osgeo4proj6common8DateTimeD2Ev(ptr noundef nonnull align 8 captures(none) dereferenceable(8) %0) unnamed_addr #3 align 2 personality ptr @__gxx_personality_v0 {
  %2 = load ptr, ptr %0, align 8, !tbaa !110
  %.not.i = icmp eq ptr %2, null
  br i1 %.not.i, label %_ZNSt10unique_ptrIN5osgeo4proj6common8DateTime7PrivateESt14default_deleteIS4_EED2Ev.exit, label %3

3:                                                ; preds = %1
  %4 = load ptr, ptr %2, align 8, !tbaa !16
  %5 = getelementptr inbounds nuw i8, ptr %2, i64 16
  %6 = icmp eq ptr %4, %5
  br i1 %6, label %_ZNKSt7__cxx1112basic_stringIcSt11char_traitsIcESaIcEE11_M_is_localEv.exit.thread.i.i.i.i.i, label %_ZNKSt7__cxx1112basic_stringIcSt11char_traitsIcESaIcEE11_M_is_localEv.exit.i.i.i.i.i

_ZNKSt7__cxx1112basic_stringIcSt11char_traitsIcESaIcEE11_M_is_localEv.exit.thread.i.i.i.i.i: ; preds = %3
  %7 = getelementptr inbounds nuw i8, ptr %2, i64 8
  %8 = load i64, ptr %7, align 8, !tbaa !21
  %9 = icmp ult i64 %8, 16
  tail call void @llvm.assume(i1 %9)
  br label %_ZNKSt14default_deleteIN5osgeo4proj6common8DateTime7PrivateEEclEPS4_.exit.i

_ZNKSt7__cxx1112basic_stringIcSt11char_traitsIcESaIcEE11_M_is_localEv.exit.i.i.i.i.i: ; preds = %3
  %10 = load i64, ptr %5, align 8, !tbaa !22
  %11 = add i64 %10, 1
  tail call void @_ZdlPvm(ptr noundef %4, i64 noundef %11) #39
  br label %_ZNKSt14default_deleteIN5osgeo4proj6common8DateTime7PrivateEEclEPS4_.exit.i

_ZNKSt14default_deleteIN5osgeo4proj6common8DateTime7PrivateEEclEPS4_.exit.i: ; preds = %_ZNKSt7__cxx1112basic_stringIcSt11char_traitsIcESaIcEE11_M_is_localEv.exit.i.i.i.i.i, %_ZNKSt7__cxx1112basic_stringIcSt11char_traitsIcESaIcEE11_M_is_localEv.exit.thread.i.i.i.i.i
  tail call void @_ZdlPvm(ptr noundef nonnull %2, i64 noundef 32) #39
  br label %_ZNSt10unique_ptrIN5osgeo4proj6common8DateTime7PrivateESt14default_deleteIS4_EED2Ev.exit

_ZNSt10unique_ptrIN5osgeo4proj6common8DateTime7PrivateESt14default_deleteIS4_EED2Ev.exit: ; preds = %1, %_ZNKSt14default_deleteIN5osgeo4proj6common8DateTime7PrivateEEclEPS4_.exit.i
  store ptr null, ptr %0, align 8, !tbaa !110
  ret void
}